
./a.out:     file format elf32-i386


Disassembly of section .init:

08048298 <_init>:
 8048298:	55                   	push   %ebp
 8048299:	89 e5                	mov    %esp,%ebp
 804829b:	53                   	push   %ebx
 804829c:	83 ec 04             	sub    $0x4,%esp
 804829f:	e8 00 00 00 00       	call   80482a4 <_init+0xc>
 80482a4:	5b                   	pop    %ebx
 80482a5:	81 c3 58 13 00 00    	add    $0x1358,%ebx
 80482ab:	8b 93 fc ff ff ff    	mov    -0x4(%ebx),%edx
 80482b1:	85 d2                	test   %edx,%edx
 80482b3:	74 05                	je     80482ba <_init+0x22>
 80482b5:	e8 16 00 00 00       	call   80482d0 <__gmon_start__@plt>
 80482ba:	58                   	pop    %eax
 80482bb:	5b                   	pop    %ebx
 80482bc:	c9                   	leave  
 80482bd:	c3                   	ret    

Disassembly of section .plt:

080482c0 <__gmon_start__@plt-0x10>:
 80482c0:	ff 35 00 96 04 08    	pushl  0x8049600
 80482c6:	ff 25 04 96 04 08    	jmp    *0x8049604
 80482cc:	00 00                	add    %al,(%eax)
	...

080482d0 <__gmon_start__@plt>:
 80482d0:	ff 25 08 96 04 08    	jmp    *0x8049608
 80482d6:	68 00 00 00 00       	push   $0x0
 80482db:	e9 e0 ff ff ff       	jmp    80482c0 <_init+0x28>

080482e0 <__libc_start_main@plt>:
 80482e0:	ff 25 0c 96 04 08    	jmp    *0x804960c
 80482e6:	68 08 00 00 00       	push   $0x8
 80482eb:	e9 d0 ff ff ff       	jmp    80482c0 <_init+0x28>

Disassembly of section .text:

080482f0 <_start>:
 80482f0:	31 ed                	xor    %ebp,%ebp
 80482f2:	5e                   	pop    %esi
 80482f3:	89 e1                	mov    %esp,%ecx
 80482f5:	83 e4 f0             	and    $0xfffffff0,%esp
 80482f8:	50                   	push   %eax
 80482f9:	54                   	push   %esp
 80482fa:	52                   	push   %edx
 80482fb:	68 f0 83 04 08       	push   $0x80483f0
 8048300:	68 00 84 04 08       	push   $0x8048400
 8048305:	51                   	push   %ecx
 8048306:	56                   	push   %esi
 8048307:	68 dc 83 04 08       	push   $0x80483dc
 804830c:	e8 cf ff ff ff       	call   80482e0 <__libc_start_main@plt>
 8048311:	f4                   	hlt    
 8048312:	90                   	nop
 8048313:	90                   	nop
 8048314:	90                   	nop
 8048315:	90                   	nop
 8048316:	90                   	nop
 8048317:	90                   	nop
 8048318:	90                   	nop
 8048319:	90                   	nop
 804831a:	90                   	nop
 804831b:	90                   	nop
 804831c:	90                   	nop
 804831d:	90                   	nop
 804831e:	90                   	nop
 804831f:	90                   	nop

08048320 <deregister_tm_clones>:
 8048320:	b8 23 96 04 08       	mov    $0x8049623,%eax
 8048325:	2d 20 96 04 08       	sub    $0x8049620,%eax
 804832a:	83 f8 06             	cmp    $0x6,%eax
 804832d:	77 02                	ja     8048331 <deregister_tm_clones+0x11>
 804832f:	f3 c3                	repz ret 
 8048331:	b8 00 00 00 00       	mov    $0x0,%eax
 8048336:	85 c0                	test   %eax,%eax
 8048338:	74 f5                	je     804832f <deregister_tm_clones+0xf>
 804833a:	55                   	push   %ebp
 804833b:	89 e5                	mov    %esp,%ebp
 804833d:	83 ec 18             	sub    $0x18,%esp
 8048340:	c7 04 24 20 96 04 08 	movl   $0x8049620,(%esp)
 8048347:	ff d0                	call   *%eax
 8048349:	c9                   	leave  
 804834a:	c3                   	ret    
 804834b:	90                   	nop
 804834c:	8d 74 26 00          	lea    0x0(%esi,%eiz,1),%esi

08048350 <register_tm_clones>:
 8048350:	b8 20 96 04 08       	mov    $0x8049620,%eax
 8048355:	2d 20 96 04 08       	sub    $0x8049620,%eax
 804835a:	c1 f8 02             	sar    $0x2,%eax
 804835d:	89 c2                	mov    %eax,%edx
 804835f:	c1 ea 1f             	shr    $0x1f,%edx
 8048362:	01 d0                	add    %edx,%eax
 8048364:	d1 f8                	sar    %eax
 8048366:	75 02                	jne    804836a <register_tm_clones+0x1a>
 8048368:	f3 c3                	repz ret 
 804836a:	ba 00 00 00 00       	mov    $0x0,%edx
 804836f:	85 d2                	test   %edx,%edx
 8048371:	74 f5                	je     8048368 <register_tm_clones+0x18>
 8048373:	55                   	push   %ebp
 8048374:	89 e5                	mov    %esp,%ebp
 8048376:	83 ec 18             	sub    $0x18,%esp
 8048379:	89 44 24 04          	mov    %eax,0x4(%esp)
 804837d:	c7 04 24 20 96 04 08 	movl   $0x8049620,(%esp)
 8048384:	ff d2                	call   *%edx
 8048386:	c9                   	leave  
 8048387:	c3                   	ret    
 8048388:	90                   	nop
 8048389:	8d b4 26 00 00 00 00 	lea    0x0(%esi,%eiz,1),%esi

08048390 <__do_global_dtors_aux>:
 8048390:	80 3d 20 96 04 08 00 	cmpb   $0x0,0x8049620
 8048397:	75 13                	jne    80483ac <__do_global_dtors_aux+0x1c>
 8048399:	55                   	push   %ebp
 804839a:	89 e5                	mov    %esp,%ebp
 804839c:	83 ec 08             	sub    $0x8,%esp
 804839f:	e8 7c ff ff ff       	call   8048320 <deregister_tm_clones>
 80483a4:	c6 05 20 96 04 08 01 	movb   $0x1,0x8049620
 80483ab:	c9                   	leave  
 80483ac:	f3 c3                	repz ret 
 80483ae:	66 90                	xchg   %ax,%ax

080483b0 <frame_dummy>:
 80483b0:	a1 04 95 04 08       	mov    0x8049504,%eax
 80483b5:	85 c0                	test   %eax,%eax
 80483b7:	74 1e                	je     80483d7 <frame_dummy+0x27>
 80483b9:	b8 00 00 00 00       	mov    $0x0,%eax
 80483be:	85 c0                	test   %eax,%eax
 80483c0:	74 15                	je     80483d7 <frame_dummy+0x27>
 80483c2:	55                   	push   %ebp
 80483c3:	89 e5                	mov    %esp,%ebp
 80483c5:	83 ec 18             	sub    $0x18,%esp
 80483c8:	c7 04 24 04 95 04 08 	movl   $0x8049504,(%esp)
 80483cf:	ff d0                	call   *%eax
 80483d1:	c9                   	leave  
 80483d2:	e9 79 ff ff ff       	jmp    8048350 <register_tm_clones>
 80483d7:	e9 74 ff ff ff       	jmp    8048350 <register_tm_clones>

080483dc <main>:
 80483dc:	55                   	push   %ebp
 80483dd:	89 e5                	mov    %esp,%ebp
 80483df:	83 e4 f0             	and    $0xfffffff0,%esp
 80483e2:	b8 18 96 04 08       	mov    $0x8049618,%eax
 80483e7:	ff d0                	call   *%eax
 80483e9:	c9                   	leave  
 80483ea:	c3                   	ret    
 80483eb:	90                   	nop
 80483ec:	90                   	nop
 80483ed:	90                   	nop
 80483ee:	90                   	nop
 80483ef:	90                   	nop

080483f0 <__libc_csu_fini>:
 80483f0:	55                   	push   %ebp
 80483f1:	89 e5                	mov    %esp,%ebp
 80483f3:	5d                   	pop    %ebp
 80483f4:	c3                   	ret    
 80483f5:	8d 74 26 00          	lea    0x0(%esi,%eiz,1),%esi
 80483f9:	8d bc 27 00 00 00 00 	lea    0x0(%edi,%eiz,1),%edi

08048400 <__libc_csu_init>:
 8048400:	55                   	push   %ebp
 8048401:	89 e5                	mov    %esp,%ebp
 8048403:	57                   	push   %edi
 8048404:	56                   	push   %esi
 8048405:	53                   	push   %ebx
 8048406:	e8 4f 00 00 00       	call   804845a <__i686.get_pc_thunk.bx>
 804840b:	81 c3 f1 11 00 00    	add    $0x11f1,%ebx
 8048411:	83 ec 1c             	sub    $0x1c,%esp
 8048414:	e8 7f fe ff ff       	call   8048298 <_init>
 8048419:	8d bb 04 ff ff ff    	lea    -0xfc(%ebx),%edi
 804841f:	8d 83 00 ff ff ff    	lea    -0x100(%ebx),%eax
 8048425:	29 c7                	sub    %eax,%edi
 8048427:	c1 ff 02             	sar    $0x2,%edi
 804842a:	85 ff                	test   %edi,%edi
 804842c:	74 24                	je     8048452 <__libc_csu_init+0x52>
 804842e:	31 f6                	xor    %esi,%esi
 8048430:	8b 45 10             	mov    0x10(%ebp),%eax
 8048433:	89 44 24 08          	mov    %eax,0x8(%esp)
 8048437:	8b 45 0c             	mov    0xc(%ebp),%eax
 804843a:	89 44 24 04          	mov    %eax,0x4(%esp)
 804843e:	8b 45 08             	mov    0x8(%ebp),%eax
 8048441:	89 04 24             	mov    %eax,(%esp)
 8048444:	ff 94 b3 00 ff ff ff 	call   *-0x100(%ebx,%esi,4)
 804844b:	83 c6 01             	add    $0x1,%esi
 804844e:	39 fe                	cmp    %edi,%esi
 8048450:	72 de                	jb     8048430 <__libc_csu_init+0x30>
 8048452:	83 c4 1c             	add    $0x1c,%esp
 8048455:	5b                   	pop    %ebx
 8048456:	5e                   	pop    %esi
 8048457:	5f                   	pop    %edi
 8048458:	5d                   	pop    %ebp
 8048459:	c3                   	ret    

0804845a <__i686.get_pc_thunk.bx>:
 804845a:	8b 1c 24             	mov    (%esp),%ebx
 804845d:	c3                   	ret    
 804845e:	90                   	nop
 804845f:	90                   	nop

Disassembly of section .fini:

08048460 <_fini>:
 8048460:	55                   	push   %ebp
 8048461:	89 e5                	mov    %esp,%ebp
 8048463:	53                   	push   %ebx
 8048464:	83 ec 04             	sub    $0x4,%esp
 8048467:	e8 00 00 00 00       	call   804846c <_fini+0xc>
 804846c:	5b                   	pop    %ebx
 804846d:	81 c3 90 11 00 00    	add    $0x1190,%ebx
 8048473:	59                   	pop    %ecx
 8048474:	5b                   	pop    %ebx
 8048475:	c9                   	leave  
 8048476:	c3                   	ret    
